(lp0
(lp1
I1
aI0
aI0
aI0
aI0
aI0
aI0
aI0
aI0
aa(lp2
I0
aI0
aI0
aI0
aI0
aI0
aI0
aI0
aI1
aa(lp3
I0
aI0
aI0
aI0
aI0
aI0
aI1
aI0
aI0
aa(lp4
I0
aI0
aI0
aI0
aI0
aI0
aI0
aI0
aI1
aa(lp5
I0
aI0
aI0
aI0
aI0
aI0
aI0
aI0
aI1
aa(lp6
I0
aI0
aI0
aI0
aI0
aI0
aI0
aI0
aI1
aa(lp7
I0
aI0
aI0
aI0
aI0
aI0
aI1
aI0
aI0
aa(lp8
I0
aI0
aI0
aI0
aI0
aI0
aI0
aI0
aI1
aa(lp9
I0
aI0
aI0
aI0
aI0
aI0
aI0
aI0
aI1
aa(lp10
I0
aI0
aI0
aI0
aI1
aI0
aI0
aI0
aI0
aa.